; Function Attrs: mustprogress nofree nounwind willreturn uwtable
define noalias noundef ptr @Msat_IntVecAllocArrayCopy(ptr noundef readonly captures(none) %0, i32 noundef %1) local_unnamed_addr #2 {
  %3 = tail call noalias dereferenceable_or_null(16) ptr @malloc(i64 noundef 16) #19
  %4 = getelementptr inbounds nuw i8, ptr %3, i64 8
  store i32 %1, ptr %4, align 8, !tbaa !3
  %5 = getelementptr inbounds nuw i8, ptr %3, i64 12
  store i32 %1, ptr %5, align 4, !tbaa !10
  %6 = sext i32 %1 to i64
  %7 = shl nsw i64 %6, 2
  %8 = tail call noalias ptr @malloc(i64 noundef %7) #19
  store ptr %8, ptr %3, align 8, !tbaa !11
  tail call void @llvm.memcpy.p0.p0.i64(ptr align 4 %8, ptr align 4 %0, i64 %7, i1 false)
  ret ptr %3
}